target datalayout = "e-m:e-p270:32:32-p271:32:32-p272:64:64-i64:64-i128:128-f80:128-n8:16:32:64-S128"
target triple = "x86_64-pc-linux-gnu"

%struct._GError = type { i32, i32, ptr }
%struct._GSList = type { ptr, ptr }

@fileset_filename_match_pattern.pattern = internal global ptr @.str, align 8
@fileset_filename_match_pattern.pattern2 = internal global ptr @.str.1, align 8
@fileset_filename_match_pattern.regex = internal global ptr null, align 8
@fileset_filename_match_pattern.regex2 = internal global ptr null, align 8
@.str.2 = private unnamed_addr constant [1 x i8] zeroinitializer, align 1
@.str.3 = private unnamed_addr constant [10 x i8] c"fileset.c\00", align 1
@__func__.fileset_filename_match_pattern = private unnamed_addr constant [31 x i8] c"fileset_filename_match_pattern\00", align 1
@.str.4 = private unnamed_addr constant [28 x i8] c"failed to compile regex: %s\00", align 1
@.str.5 = private unnamed_addr constant [7 x i8] c"prefix\00", align 1
@.str.6 = private unnamed_addr constant [5 x i8] c"time\00", align 1

; Function Attrs: nounwind uwtable
define hidden i32 @fileset_filename_match_pattern(ptr noundef %0, ptr noundef %1, ptr noundef %2, ptr noundef %3) #0 {
  %5 = alloca i32, align 4
  %6 = alloca ptr, align 8
  %7 = alloca ptr, align 8
  %8 = alloca ptr, align 8
  %9 = alloca ptr, align 8
  %10 = alloca ptr, align 8
  %11 = alloca ptr, align 8
  %12 = alloca i32, align 4
  %13 = alloca ptr, align 8
  %14 = alloca ptr, align 8
  %15 = alloca ptr, align 8
  %16 = alloca ptr, align 8
  %17 = alloca ptr, align 8
  %18 = alloca ptr, align 8
  store ptr %0, ptr %6, align 8
  store ptr %1, ptr %7, align 8
  store ptr %2, ptr %8, align 8
  store ptr %3, ptr %9, align 8
  store i32 0, ptr %12, align 4
  %19 = load ptr, ptr @fileset_filename_match_pattern.regex, align 8
  %20 = icmp eq ptr %19, null
  br i1 %20, label %21, label %35

21:                                               ; preds = %4
  store ptr null, ptr %13, align 8
  %22 = load ptr, ptr @fileset_filename_match_pattern.pattern, align 8
  %23 = call ptr @g_regex_new(ptr noundef %22, i32 noundef 8208, i32 noundef 16, ptr noundef null)
  store ptr %23, ptr @fileset_filename_match_pattern.regex, align 8
  %24 = load ptr, ptr %13, align 8
  %25 = icmp ne ptr %24, null
  br i1 %25, label %26, label %34

26:                                               ; preds = %21
  br label %27

27:                                               ; preds = %26
  %28 = load ptr, ptr %13, align 8
  %29 = getelementptr inbounds %struct._GError, ptr %28, i32 0, i32 2
  %30 = load ptr, ptr %29, align 8
  call void (ptr, i32, ptr, i64, ptr, ptr, ...) @ws_log_full(ptr noundef @.str.2, i32 noundef 5, ptr noundef @.str.3, i64 noundef 80, ptr noundef @__func__.fileset_filename_match_pattern, ptr noundef @.str.4, ptr noundef %30)
  br label %31

31:                                               ; preds = %27
  %32 = load ptr, ptr %13, align 8
  call void @g_error_free(ptr noundef %32)
  store ptr null, ptr @fileset_filename_match_pattern.regex, align 8
  %33 = load i32, ptr %12, align 4
  store i32 %33, ptr %5, align 4
  br label %170

34:                                               ; preds = %21
  br label %35

35:                                               ; preds = %34, %4
  %36 = load ptr, ptr @fileset_filename_match_pattern.regex2, align 8
  %37 = icmp eq ptr %36, null
  br i1 %37, label %38, label %52

38:                                               ; preds = %35
  store ptr null, ptr %14, align 8
  %39 = load ptr, ptr @fileset_filename_match_pattern.pattern2, align 8
  %40 = call ptr @g_regex_new(ptr noundef %39, i32 noundef 8208, i32 noundef 16, ptr noundef null)
  store ptr %40, ptr @fileset_filename_match_pattern.regex2, align 8
  %41 = load ptr, ptr %14, align 8
  %42 = icmp ne ptr %41, null
  br i1 %42, label %43, label %51

43:                                               ; preds = %38
  br label %44

44:                                               ; preds = %43
  %45 = load ptr, ptr %14, align 8
  %46 = getelementptr inbounds %struct._GError, ptr %45, i32 0, i32 2
  %47 = load ptr, ptr %46, align 8
  call void (ptr, i32, ptr, i64, ptr, ptr, ...) @ws_log_full(ptr noundef @.str.2, i32 noundef 5, ptr noundef @.str.3, i64 noundef 93, ptr noundef @__func__.fileset_filename_match_pattern, ptr noundef @.str.4, ptr noundef %47)
  br label %48

48:                                               ; preds = %44
  %49 = load ptr, ptr %14, align 8
  call void @g_error_free(ptr noundef %49)
  store ptr null, ptr @fileset_filename_match_pattern.regex2, align 8
  %50 = load i32, ptr %12, align 4
  store i32 %50, ptr %5, align 4
  br label %170

51:                                               ; preds = %38
  br label %52

52:                                               ; preds = %51, %35
  %53 = load ptr, ptr %6, align 8
  %54 = call noalias ptr @g_path_get_basename(ptr noundef %53)
  store ptr %54, ptr %11, align 8
  %55 = load ptr, ptr %11, align 8
  %56 = call ptr @strrchr(ptr noundef %55, i32 noundef 46) #5
  store ptr %56, ptr %10, align 8
  %57 = load ptr, ptr %10, align 8
  %58 = icmp ne ptr %57, null
  br i1 %58, label %59, label %98

59:                                               ; preds = %52
  %60 = load ptr, ptr %10, align 8
  store i8 0, ptr %60, align 1
  %61 = call ptr @wtap_get_all_compression_type_extensions_list()
  store ptr %61, ptr %15, align 8
  %62 = load ptr, ptr %10, align 8
  %63 = getelementptr i8, ptr %62, i64 1
  %64 = call noalias ptr @g_ascii_strdown(ptr noundef %63, i64 noundef -1)
  store ptr %64, ptr %16, align 8
  %65 = load ptr, ptr %15, align 8
  store ptr %65, ptr %17, align 8
  br label %66

66:                                               ; preds = %93, %59
  %67 = load ptr, ptr %17, align 8
  %68 = icmp ne ptr %67, null
  br i1 %68, label %69, label %95

69:                                               ; preds = %66
  %70 = load ptr, ptr %16, align 8
  %71 = load ptr, ptr %17, align 8
  %72 = getelementptr inbounds %struct._GSList, ptr %71, i32 0, i32 0
  %73 = load ptr, ptr %72, align 8
  %74 = call i32 @g_strcmp0(ptr noundef %70, ptr noundef %73)
  %75 = icmp eq i32 %74, 0
  br i1 %75, label %76, label %84

76:                                               ; preds = %69
  %77 = load ptr, ptr %11, align 8
  %78 = call ptr @strrchr(ptr noundef %77, i32 noundef 46) #5
  store ptr %78, ptr %10, align 8
  %79 = load ptr, ptr %10, align 8
  %80 = icmp ne ptr %79, null
  br i1 %80, label %81, label %83

81:                                               ; preds = %76
  %82 = load ptr, ptr %10, align 8
  store i8 0, ptr %82, align 1
  br label %83

83:                                               ; preds = %81, %76
  br label %95

84:                                               ; preds = %69
  br label %85

85:                                               ; preds = %84
  %86 = load ptr, ptr %17, align 8
  %87 = icmp ne ptr %86, null
  br i1 %87, label %88, label %92

88:                                               ; preds = %85
  %89 = load ptr, ptr %17, align 8
  %90 = getelementptr inbounds %struct._GSList, ptr %89, i32 0, i32 1
  %91 = load ptr, ptr %90, align 8
  br label %93

92:                                               ; preds = %85
  br label %93

93:                                               ; preds = %92, %88
  %94 = phi ptr [ %91, %88 ], [ null, %92 ]
  store ptr %94, ptr %17, align 8
  br label %66, !llvm.loop !4

95:                                               ; preds = %83, %66
  %96 = load ptr, ptr %16, align 8
  call void @g_free(ptr noundef %96)
  %97 = load ptr, ptr %15, align 8
  call void @g_slist_free(ptr noundef %97)
  br label %103

98:                                               ; preds = %52
  %99 = load ptr, ptr %11, align 8
  %100 = load ptr, ptr %11, align 8
  %101 = call i64 @strlen(ptr noundef %100) #5
  %102 = getelementptr i8, ptr %99, i64 %101
  store ptr %102, ptr %10, align 8
  br label %103

103:                                              ; preds = %98, %95
  %104 = load ptr, ptr @fileset_filename_match_pattern.regex, align 8
  %105 = load ptr, ptr %11, align 8
  %106 = call i32 @g_regex_match(ptr noundef %104, ptr noundef %105, i32 noundef 0, ptr noundef %18)
  %107 = load ptr, ptr %18, align 8
  %108 = call i32 @g_match_info_matches(ptr noundef %107)
  %109 = icmp ne i32 %108, 0
  br i1 %109, label %110, label %132

110:                                              ; preds = %103
  %111 = load ptr, ptr %7, align 8
  %112 = icmp ne ptr %111, null
  br i1 %112, label %113, label %117

113:                                              ; preds = %110
  %114 = load ptr, ptr %18, align 8
  %115 = call ptr @g_match_info_fetch_named(ptr noundef %114, ptr noundef @.str.5)
  %116 = load ptr, ptr %7, align 8
  store ptr %115, ptr %116, align 8
  br label %117

117:                                              ; preds = %113, %110
  %118 = load ptr, ptr %9, align 8
  %119 = icmp ne ptr %118, null
  br i1 %119, label %120, label %124

120:                                              ; preds = %117
  %121 = load ptr, ptr %18, align 8
  %122 = call ptr @g_match_info_fetch_named(ptr noundef %121, ptr noundef @.str.6)
  %123 = load ptr, ptr %9, align 8
  store ptr %122, ptr %123, align 8
  br label %124

124:                                              ; preds = %120, %117
  %125 = load ptr, ptr %8, align 8
  %126 = icmp ne ptr %125, null
  br i1 %126, label %127, label %131

127:                                              ; preds = %124
  %128 = load ptr, ptr %10, align 8
  %129 = call noalias ptr @g_strdup(ptr noundef %128)
  %130 = load ptr, ptr %8, align 8
  store ptr %129, ptr %130, align 8
  br label %131

131:                                              ; preds = %127, %124
  store i32 2, ptr %12, align 4
  br label %132

132:                                              ; preds = %131, %103
  %133 = load ptr, ptr %18, align 8
  call void @g_match_info_free(ptr noundef %133)
  %134 = load i32, ptr %12, align 4
  %135 = icmp eq i32 %134, 0
  br i1 %135, label %136, label %167

136:                                              ; preds = %132
  %137 = load ptr, ptr @fileset_filename_match_pattern.regex2, align 8
  %138 = load ptr, ptr %11, align 8
  %139 = call i32 @g_regex_match(ptr noundef %137, ptr noundef %138, i32 noundef 0, ptr noundef %18)
  %140 = load ptr, ptr %18, align 8
  %141 = call i32 @g_match_info_matches(ptr noundef %140)
  %142 = icmp ne i32 %141, 0
  br i1 %142, label %143, label %165

143:                                              ; preds = %136
  %144 = load ptr, ptr %7, align 8
  %145 = icmp ne ptr %144, null
  br i1 %145, label %146, label %150

146:                                              ; preds = %143
  %147 = load ptr, ptr %18, align 8
  %148 = call ptr @g_match_info_fetch_named(ptr noundef %147, ptr noundef @.str.5)
  %149 = load ptr, ptr %7, align 8
  store ptr %148, ptr %149, align 8
  br label %150

150:                                              ; preds = %146, %143
  %151 = load ptr, ptr %9, align 8
  %152 = icmp ne ptr %151, null
  br i1 %152, label %153, label %157

153:                                              ; preds = %150
  %154 = load ptr, ptr %18, align 8
  %155 = call ptr @g_match_info_fetch_named(ptr noundef %154, ptr noundef @.str.6)
  %156 = load ptr, ptr %9, align 8
  store ptr %155, ptr %156, align 8
  br label %157

157:                                              ; preds = %153, %150
  %158 = load ptr, ptr %8, align 8
  %159 = icmp ne ptr %158, null
  br i1 %159, label %160, label %164

160:                                              ; preds = %157
  %161 = load ptr, ptr %10, align 8
  %162 = call noalias ptr @g_strdup(ptr noundef %161)
  %163 = load ptr, ptr %8, align 8
  store ptr %162, ptr %163, align 8
  br label %164

164:                                              ; preds = %160, %157
  store i32 1, ptr %12, align 4
  br label %165

165:                                              ; preds = %164, %136
  %166 = load ptr, ptr %18, align 8
  call void @g_match_info_free(ptr noundef %166)
  br label %167

167:                                              ; preds = %165, %132
  %168 = load ptr, ptr %11, align 8
  call void @g_free(ptr noundef %168)
  %169 = load i32, ptr %12, align 4
  store i32 %169, ptr %5, align 4
  br label %170

170:                                              ; preds = %167, %48, %31
  %171 = load i32, ptr %5, align 4
  ret i32 %171
}