; Function Attrs: nounwind uwtable
define hidden range(i32 0, 3) i32 @fileset_filename_match_pattern(ptr noundef %0, ptr noundef writeonly %1, ptr noundef writeonly %2, ptr noundef writeonly %3) local_unnamed_addr #0 {
  %5 = alloca ptr, align 8
  %6 = load ptr, ptr @fileset_filename_match_pattern.regex, align 8
  %7 = icmp eq ptr %6, null
  br i1 %7, label %8, label %10

8:                                                ; preds = %4
  %9 = tail call ptr @g_regex_new(ptr noundef nonnull @.str, i32 noundef 8208, i32 noundef 16, ptr noundef null) #9
  store ptr %9, ptr @fileset_filename_match_pattern.regex, align 8
  br label %10

10:                                               ; preds = %8, %4
  %11 = load ptr, ptr @fileset_filename_match_pattern.regex2, align 8
  %12 = icmp eq ptr %11, null
  br i1 %12, label %13, label %15

13:                                               ; preds = %10
  %14 = tail call ptr @g_regex_new(ptr noundef nonnull @.str.1, i32 noundef 8208, i32 noundef 16, ptr noundef null) #9
  store ptr %14, ptr @fileset_filename_match_pattern.regex2, align 8
  br label %15

15:                                               ; preds = %13, %10
  %16 = tail call noalias ptr @g_path_get_basename(ptr noundef %0) #9
  %17 = tail call ptr @strrchr(ptr noundef nonnull dereferenceable(1) %16, i32 noundef 46) #10
  %.not = icmp eq ptr %17, null
  br i1 %.not, label %31, label %18

18:                                               ; preds = %15
  store i8 0, ptr %17, align 1
  %19 = tail call ptr @wtap_get_all_compression_type_extensions_list() #9
  %20 = getelementptr i8, ptr %17, i64 1
  %21 = tail call noalias ptr @g_ascii_strdown(ptr noundef %20, i64 noundef -1) #9
  %.not5869 = icmp eq ptr %19, null
  br i1 %.not5869, label %.loopexit, label %.lr.ph

.lr.ph:                                           ; preds = %18, %28
  %.070 = phi ptr [ %30, %28 ], [ %19, %18 ]
  %22 = load ptr, ptr %.070, align 8
  %23 = tail call i32 @g_strcmp0(ptr noundef %21, ptr noundef %22) #9
  %24 = icmp eq i32 %23, 0
  br i1 %24, label %25, label %28

25:                                               ; preds = %.lr.ph
  %26 = tail call ptr @strrchr(ptr noundef nonnull dereferenceable(1) %16, i32 noundef 46) #10
  %.not59 = icmp eq ptr %26, null
  br i1 %.not59, label %.loopexit, label %27

27:                                               ; preds = %25
  store i8 0, ptr %26, align 1
  br label %.loopexit

28:                                               ; preds = %.lr.ph
  %29 = getelementptr inbounds nuw i8, ptr %.070, i64 8
  %30 = load ptr, ptr %29, align 8
  %.not58 = icmp eq ptr %30, null
  br i1 %.not58, label %.loopexit, label %.lr.ph, !llvm.loop !4

.loopexit:                                        ; preds = %28, %18, %25, %27
  %.046 = phi ptr [ %26, %27 ], [ null, %25 ], [ %17, %18 ], [ %17, %28 ]
  tail call void @g_free(ptr noundef %21) #9
  tail call void @g_slist_free(ptr noundef %19) #9
  br label %34

31:                                               ; preds = %15
  %32 = tail call i64 @strlen(ptr noundef nonnull dereferenceable(1) %16) #10
  %33 = getelementptr i8, ptr %16, i64 %32
  br label %34

34:                                               ; preds = %31, %.loopexit
  %.1 = phi ptr [ %.046, %.loopexit ], [ %33, %31 ]
  %35 = load ptr, ptr @fileset_filename_match_pattern.regex, align 8
  %36 = call i32 @g_regex_match(ptr noundef %35, ptr noundef nonnull %16, i32 noundef 0, ptr noundef nonnull %5) #9
  %37 = load ptr, ptr %5, align 8
  %38 = call i32 @g_match_info_matches(ptr noundef %37) #9
  %.not60 = icmp eq i32 %38, 0
  br i1 %.not60, label %48, label %39

39:                                               ; preds = %34
  %.not61 = icmp eq ptr %1, null
  br i1 %.not61, label %43, label %40

40:                                               ; preds = %39
  %41 = load ptr, ptr %5, align 8
  %42 = call ptr @g_match_info_fetch_named(ptr noundef %41, ptr noundef nonnull @.str.5) #9
  store ptr %42, ptr %1, align 8
  br label %43

43:                                               ; preds = %40, %39
  %.not62 = icmp eq ptr %3, null
  br i1 %.not62, label %47, label %44

44:                                               ; preds = %43
  %45 = load ptr, ptr %5, align 8
  %46 = call ptr @g_match_info_fetch_named(ptr noundef %45, ptr noundef nonnull @.str.6) #9
  store ptr %46, ptr %3, align 8
  br label %47

47:                                               ; preds = %44, %43
  %.not63 = icmp eq ptr %2, null
  br i1 %.not63, label %.thread, label %.thread.sink.split

48:                                               ; preds = %34
  %49 = load ptr, ptr %5, align 8
  call void @g_match_info_free(ptr noundef %49) #9
  %50 = load ptr, ptr @fileset_filename_match_pattern.regex2, align 8
  %51 = call i32 @g_regex_match(ptr noundef %50, ptr noundef nonnull %16, i32 noundef 0, ptr noundef nonnull %5) #9
  %52 = load ptr, ptr %5, align 8
  %53 = call i32 @g_match_info_matches(ptr noundef %52) #9
  %.not64 = icmp eq i32 %53, 0
  br i1 %.not64, label %.thread, label %54

54:                                               ; preds = %48
  %.not65 = icmp eq ptr %1, null
  br i1 %.not65, label %58, label %55

55:                                               ; preds = %54
  %56 = load ptr, ptr %5, align 8
  %57 = call ptr @g_match_info_fetch_named(ptr noundef %56, ptr noundef nonnull @.str.5) #9
  store ptr %57, ptr %1, align 8
  br label %58

58:                                               ; preds = %55, %54
  %.not66 = icmp eq ptr %3, null
  br i1 %.not66, label %62, label %59

59:                                               ; preds = %58
  %60 = load ptr, ptr %5, align 8
  %61 = call ptr @g_match_info_fetch_named(ptr noundef %60, ptr noundef nonnull @.str.6) #9
  store ptr %61, ptr %3, align 8
  br label %62

62:                                               ; preds = %59, %58
  %.not67 = icmp eq ptr %2, null
  br i1 %.not67, label %.thread, label %.thread.sink.split

.thread.sink.split:                               ; preds = %62, %47
  %.148.ph = phi i32 [ 2, %47 ], [ 1, %62 ]
  %63 = call noalias ptr @g_strdup(ptr noundef %.1) #9
  store ptr %63, ptr %2, align 8
  br label %.thread

.thread:                                          ; preds = %.thread.sink.split, %48, %62, %47
  %.148 = phi i32 [ 2, %47 ], [ 0, %48 ], [ 1, %62 ], [ %.148.ph, %.thread.sink.split ]
  %64 = load ptr, ptr %5, align 8
  call void @g_match_info_free(ptr noundef %64) #9
  call void @g_free(ptr noundef nonnull %16) #9
  ret i32 %.148
}